target datalayout = "e-m:e-p270:32:32-p271:32:32-p272:64:64-i64:64-i128:128-f80:128-n8:16:32:64-S128"
target triple = "x86_64-pc-linux-gnu"

%struct.Font = type { i32, i32, i32, %struct.Texture, ptr, ptr }
%struct.Texture = type { i32, i32, i32, i32, i32 }
%struct.Image = type { ptr, i32, i32, i32, i32 }
%struct.GlyphInfo = type { i32, i32, i32, i32, %struct.Image }

@defaultFont = internal global %struct.Font zeroinitializer, align 8
@isGpuReady = external global i8, align 1

; Function Attrs: nounwind uwtable
define void @UnloadFontData(ptr noundef %0, i32 noundef %1) #0 {
  %3 = alloca ptr, align 8
  %4 = alloca i32, align 4
  %5 = alloca i32, align 4
  store ptr %0, ptr %3, align 8
  store i32 %1, ptr %4, align 4
  %6 = load ptr, ptr %3, align 8
  %7 = icmp ne ptr %6, null
  br i1 %7, label %8, label %25

8:                                                ; preds = %2
  call void @llvm.lifetime.start.p0(i64 4, ptr %5) #13
  store i32 0, ptr %5, align 4
  br label %9

9:                                                ; preds = %20, %8
  %10 = load i32, ptr %5, align 4
  %11 = load i32, ptr %4, align 4
  %12 = icmp slt i32 %10, %11
  br i1 %12, label %14, label %13

13:                                               ; preds = %9
  call void @llvm.lifetime.end.p0(i64 4, ptr %5) #13
  br label %23

14:                                               ; preds = %9
  %15 = load ptr, ptr %3, align 8
  %16 = load i32, ptr %5, align 4
  %17 = sext i32 %16 to i64
  %18 = getelementptr inbounds %struct.GlyphInfo, ptr %15, i64 %17
  %19 = getelementptr inbounds nuw %struct.GlyphInfo, ptr %18, i32 0, i32 4
  call void @UnloadImage(ptr noundef byval(%struct.Image) align 8 %19)
  br label %20

20:                                               ; preds = %14
  %21 = load i32, ptr %5, align 4
  %22 = add nsw i32 %21, 1
  store i32 %22, ptr %5, align 4
  br label %9

23:                                               ; preds = %13
  %24 = load ptr, ptr %3, align 8
  call void @free(ptr noundef %24) #13
  br label %25

25:                                               ; preds = %23, %2
  ret void
}

; Function Attrs: nounwind uwtable
define void @GetFontDefault(ptr dead_on_unwind noalias writable sret(%struct.Font) align 8 %0) #0 {
  call void @llvm.memcpy.p0.p0.i64(ptr align 8 %0, ptr align 8 @defaultFont, i64 48, i1 false)
  ret void
}

; Function Attrs: nounwind uwtable
define void @UnloadFont(ptr noundef byval(%struct.Font) align 8 %0) #0 {
  %2 = alloca %struct.Font, align 8
  %3 = alloca %struct.Texture, align 8
  %4 = getelementptr inbounds nuw %struct.Font, ptr %0, i32 0, i32 3
  %5 = getelementptr inbounds nuw %struct.Texture, ptr %4, i32 0, i32 0
  %6 = load i32, ptr %5, align 4
  call void @GetFontDefault(ptr dead_on_unwind writable sret(%struct.Font) align 8 %2)
  %7 = getelementptr inbounds nuw %struct.Font, ptr %2, i32 0, i32 3
  %8 = getelementptr inbounds nuw %struct.Texture, ptr %7, i32 0, i32 0
  %9 = load i32, ptr %8, align 4
  %10 = icmp ne i32 %6, %9
  br i1 %10, label %11, label %23

11:                                               ; preds = %1
  %12 = getelementptr inbounds nuw %struct.Font, ptr %0, i32 0, i32 5
  %13 = load ptr, ptr %12, align 8
  %14 = getelementptr inbounds nuw %struct.Font, ptr %0, i32 0, i32 1
  %15 = load i32, ptr %14, align 4
  call void @UnloadFontData(ptr noundef %13, i32 noundef %15)
  %16 = load i8, ptr @isGpuReady, align 1, !range !3, !noundef !4
  %17 = trunc i8 %16 to i1
  br i1 %17, label %18, label %20

18:                                               ; preds = %11
  %19 = getelementptr inbounds nuw %struct.Font, ptr %0, i32 0, i32 3
  call void @llvm.lifetime.start.p0(i64 20, ptr %3) #13
  call void @llvm.memcpy.p0.p0.i64(ptr align 8 %3, ptr align 4 %19, i64 20, i1 false)
  call void @UnloadTexture(ptr noundef byval(%struct.Texture) align 8 %3)
  call void @llvm.lifetime.end.p0(i64 20, ptr %3) #13
  br label %20

20:                                               ; preds = %18, %11
  %21 = getelementptr inbounds nuw %struct.Font, ptr %0, i32 0, i32 4
  %22 = load ptr, ptr %21, align 8
  call void @free(ptr noundef %22) #13
  br label %23

23:                                               ; preds = %20, %1
  ret void
}