; Function Attrs: nounwind uwtable
define void @UnloadFont(ptr noundef readonly byval(%struct.Font) align 8 captures(none) %0) local_unnamed_addr #10 {
  %2 = alloca %struct.Texture, align 8
  %3 = getelementptr inbounds nuw i8, ptr %0, i64 12
  %4 = load i32, ptr %3, align 4
  %.sroa.1.0.copyload = load i32, ptr getelementptr inbounds nuw (i8, ptr @defaultFont, i64 12), align 4
  %.not = icmp eq i32 %4, %.sroa.1.0.copyload
  br i1 %.not, label %18, label %5

5:                                                ; preds = %1
  %6 = getelementptr inbounds nuw i8, ptr %0, i64 40
  %7 = load ptr, ptr %6, align 8
  %8 = getelementptr inbounds nuw i8, ptr %0, i64 4
  %9 = load i32, ptr %8, align 4
  %.not.i = icmp eq ptr %7, null
  br i1 %.not.i, label %UnloadFontData.exit, label %.preheader.i

.preheader.i:                                     ; preds = %5
  %10 = icmp sgt i32 %9, 0
  br i1 %10, label %.lr.ph.preheader.i, label %._crit_edge.i

.lr.ph.preheader.i:                               ; preds = %.preheader.i
  %wide.trip.count.i = zext nneg i32 %9 to i64
  br label %.lr.ph.i

._crit_edge.i:                                    ; preds = %.lr.ph.i, %.preheader.i
  tail call void @free(ptr noundef nonnull %7) #41
  br label %UnloadFontData.exit

.lr.ph.i:                                         ; preds = %.lr.ph.i, %.lr.ph.preheader.i
  %indvars.iv.i = phi i64 [ 0, %.lr.ph.preheader.i ], [ %indvars.iv.next.i, %.lr.ph.i ]
  %11 = getelementptr inbounds nuw %struct.GlyphInfo, ptr %7, i64 %indvars.iv.i, i32 4
  tail call void @UnloadImage(ptr noundef nonnull byval(%struct.Image) align 8 %11) #41
  %indvars.iv.next.i = add nuw nsw i64 %indvars.iv.i, 1
  %exitcond.not.i = icmp eq i64 %indvars.iv.next.i, %wide.trip.count.i
  br i1 %exitcond.not.i, label %._crit_edge.i, label %.lr.ph.i

UnloadFontData.exit:                              ; preds = %5, %._crit_edge.i
  %12 = load i8, ptr @isGpuReady, align 1, !range !3, !noundef !4
  %13 = trunc nuw i8 %12 to i1
  br i1 %13, label %14, label %15

14:                                               ; preds = %UnloadFontData.exit
  call void @llvm.lifetime.start.p0(i64 20, ptr nonnull %2) #41
  call void @llvm.memcpy.p0.p0.i64(ptr noundef nonnull align 8 dereferenceable(20) %2, ptr noundef nonnull align 4 dereferenceable(20) %3, i64 20, i1 false)
  tail call void @UnloadTexture(ptr noundef nonnull byval(%struct.Texture) align 8 %2) #41
  call void @llvm.lifetime.end.p0(i64 20, ptr nonnull %2) #41
  br label %15

15:                                               ; preds = %14, %UnloadFontData.exit
  %16 = getelementptr inbounds nuw i8, ptr %0, i64 32
  %17 = load ptr, ptr %16, align 8
  tail call void @free(ptr noundef %17) #41
  br label %18

18:                                               ; preds = %15, %1
  ret void
}